; Function Attrs: mustprogress nofree norecurse nosync nounwind willreturn memory(read, inaccessiblemem: none) uwtable
define range(i32 -1, 2) i32 @Aig_NodeCompareRefsIncrease(ptr noundef readonly captures(none) %0, ptr noundef readonly captures(none) %1) local_unnamed_addr #14 {
  %3 = load ptr, ptr %0, align 8, !tbaa !52
  %4 = getelementptr i8, ptr %3, i64 24
  %.val13 = load i64, ptr %4, align 8
  %5 = trunc i64 %.val13 to i32
  %6 = lshr i32 %5, 6
  %7 = load ptr, ptr %1, align 8, !tbaa !52
  %8 = getelementptr i8, ptr %7, i64 24
  %.val12 = load i64, ptr %8, align 8
  %9 = trunc i64 %.val12 to i32
  %10 = lshr i32 %9, 6
  %11 = icmp samesign ult i32 %6, %10
  br i1 %11, label %18, label %12

12:                                               ; preds = %2
  %.not = icmp eq i32 %6, %10
  br i1 %.not, label %13, label %18

13:                                               ; preds = %12
  %14 = getelementptr i8, ptr %3, i64 36
  %.val11 = load i32, ptr %14, align 4, !tbaa !27
  %15 = getelementptr i8, ptr %7, i64 36
  %.val = load i32, ptr %15, align 4, !tbaa !27
  %16 = icmp slt i32 %.val11, %.val
  br i1 %16, label %18, label %17

17:                                               ; preds = %13
  %.not10 = icmp ne i32 %.val11, %.val
  %. = zext i1 %.not10 to i32
  br label %18

18:                                               ; preds = %17, %13, %12, %2
  %.0 = phi i32 [ -1, %2 ], [ 1, %12 ], [ -1, %13 ], [ %., %17 ]
  ret i32 %.0
}